; Function Attrs: mustprogress uwtable
define hidden void @_ZN4cvc58internal6theory5arith27RealNullaryOperatorTypeRule11computeTypeEPNS0_11NodeManagerENS0_12NodeTemplateILb0EEEbPSo(ptr dead_on_unwind noalias writable sret(%"class.cvc5::internal::TypeNode") align 8 %0, ptr noundef %1, ptr noundef readonly captures(none) %2, i1 noundef zeroext %3, ptr noundef %4) local_unnamed_addr #3 align 2 personality ptr @__gxx_personality_v0 {
  %6 = alloca %"class.cvc5::internal::NodeTemplate", align 8
  %7 = alloca %"class.cvc5::internal::TypeNode", align 8
  call void @llvm.lifetime.start.p0(i64 8, ptr nonnull %7) #20
  call void @llvm.lifetime.start.p0(i64 8, ptr nonnull %6)
  %8 = load ptr, ptr %2, align 8, !tbaa !14, !noalias !62
  store ptr %8, ptr %6, align 8, !tbaa !14, !noalias !62
  call void @_ZN4cvc58internal11NodeManager7getTypeENS0_12NodeTemplateILb0EEEbPSo(ptr dead_on_unwind nonnull writable sret(%"class.cvc5::internal::TypeNode") align 8 %7, ptr noundef nonnull %6, i1 noundef zeroext false, ptr noundef null)
  call void @llvm.lifetime.end.p0(i64 8, ptr nonnull %6)
  %9 = invoke noundef zeroext i1 @_ZNK4cvc58internal8TypeNode6isRealEv(ptr noundef nonnull align 8 dereferenceable(8) %7)
          to label %10 unwind label %27

10:                                               ; preds = %5
  %11 = load ptr, ptr %7, align 8, !tbaa !6
  %12 = load i64, ptr %11, align 8
  %13 = and i64 %12, 1152920405095219200
  %.not.i.i = icmp eq i64 %13, 1152920405095219200
  br i1 %.not.i.i, label %_ZN4cvc58internal8TypeNodeD2Ev.exit, label %14, !prof !13

14:                                               ; preds = %10
  %15 = add i64 %12, 1152920405095219200
  %16 = and i64 %15, 1152920405095219200
  %17 = and i64 %12, -1152920405095219201
  %18 = or disjoint i64 %16, %17
  store i64 %18, ptr %11, align 8
  %19 = icmp eq i64 %16, 0
  br i1 %19, label %20, label %_ZN4cvc58internal8TypeNodeD2Ev.exit, !prof !13

20:                                               ; preds = %14
  invoke void @_ZN4cvc58internal4expr9NodeValue15markForDeletionEv(ptr noundef nonnull align 8 dereferenceable(24) %11)
          to label %_ZN4cvc58internal8TypeNodeD2Ev.exit unwind label %21

21:                                               ; preds = %20
  %22 = landingpad { ptr, i32 }
          catch ptr null
  %23 = extractvalue { ptr, i32 } %22, 0
  call void @__clang_call_terminate(ptr %23) #23
  unreachable

_ZN4cvc58internal8TypeNodeD2Ev.exit:              ; preds = %10, %14, %20
  call void @llvm.lifetime.end.p0(i64 8, ptr nonnull %7) #20
  br i1 %9, label %45, label %24

24:                                               ; preds = %_ZN4cvc58internal8TypeNodeD2Ev.exit
  %.not = icmp eq ptr %4, null
  br i1 %.not, label %29, label %25

25:                                               ; preds = %24
  %26 = call noundef nonnull align 8 dereferenceable(8) ptr @_ZSt16__ostream_insertIcSt11char_traitsIcEERSt13basic_ostreamIT_T0_ES6_PKS3_l(ptr noundef nonnull align 8 dereferenceable(8) %4, ptr noundef nonnull @.str.4, i64 noundef 19)
  br label %29

27:                                               ; preds = %5
  %28 = landingpad { ptr, i32 }
          cleanup
  call void @_ZN4cvc58internal8TypeNodeD2Ev(ptr noundef nonnull align 8 dereferenceable(8) %7) #20
  call void @llvm.lifetime.end.p0(i64 8, ptr nonnull %7) #20
  resume { ptr, i32 } %28

29:                                               ; preds = %25, %24
  call void @llvm.experimental.noalias.scope.decl(metadata !65)
  %30 = load ptr, ptr @_ZN4cvc58internal8TypeNode6s_nullE, align 8, !tbaa !6, !noalias !65
  store ptr %30, ptr %0, align 8, !tbaa !6, !alias.scope !65
  %31 = load i64, ptr %30, align 8, !noalias !65
  %32 = lshr i64 %31, 40
  %33 = trunc nuw nsw i64 %32 to i32
  %34 = and i32 %33, 1048575
  %35 = icmp samesign ult i32 %34, 1048574
  br i1 %35, label %36, label %41, !prof !12

36:                                               ; preds = %29
  %37 = add i64 %31, 1099511627776
  %38 = and i64 %37, 1152920405095219200
  %39 = and i64 %31, -1152920405095219201
  %40 = or disjoint i64 %38, %39
  store i64 %40, ptr %30, align 8, !noalias !65
  br label %_ZN4cvc58internal8TypeNode4nullEv.exit

41:                                               ; preds = %29
  %42 = icmp eq i32 %34, 1048574
  br i1 %42, label %43, label %_ZN4cvc58internal8TypeNode4nullEv.exit, !prof !13

43:                                               ; preds = %41
  %44 = or i64 %31, 1152920405095219200
  store i64 %44, ptr %30, align 8, !noalias !65
  call void @_ZN4cvc58internal4expr9NodeValue20markRefCountMaxedOutEv(ptr noundef nonnull align 8 dereferenceable(24) %30), !noalias !65
  br label %_ZN4cvc58internal8TypeNode4nullEv.exit

45:                                               ; preds = %_ZN4cvc58internal8TypeNodeD2Ev.exit
  call void @_ZN4cvc58internal11NodeManager8realTypeEv(ptr dead_on_unwind writable sret(%"class.cvc5::internal::TypeNode") align 8 %0, ptr noundef nonnull align 8 dereferenceable(3560) %1)
  br label %_ZN4cvc58internal8TypeNode4nullEv.exit

_ZN4cvc58internal8TypeNode4nullEv.exit:           ; preds = %43, %41, %36, %45
  ret void
}